target datalayout = "e-m:e-p270:32:32-p271:32:32-p272:64:64-i64:64-i128:128-f80:128-n8:16:32:64-S128"
target triple = "x86_64-pc-linux-gnu"

%struct.dtoa_context = type { [8 x ptr], ptr }
%struct.Bigint = type { ptr, i32, i32, i32, i32, [1 x i32] }

; Function Attrs: nounwind uwtable
define internal void @Bfree(ptr noundef %0, ptr noundef %1) #0 {
  %3 = alloca ptr, align 8
  %4 = alloca ptr, align 8
  store ptr %0, ptr %3, align 8, !tbaa !4
  store ptr %1, ptr %4, align 8, !tbaa !11
  %5 = load ptr, ptr %4, align 8, !tbaa !11
  %6 = icmp ne ptr %5, null
  br i1 %6, label %7, label %34

7:                                                ; preds = %2
  %8 = load ptr, ptr %4, align 8, !tbaa !11
  %9 = getelementptr inbounds nuw %struct.Bigint, ptr %8, i32 0, i32 1
  %10 = load i32, ptr %9, align 8, !tbaa !22
  %11 = icmp sgt i32 %10, 7
  br i1 %11, label %12, label %14

12:                                               ; preds = %7
  %13 = load ptr, ptr %4, align 8, !tbaa !11
  call void @jv_mem_free(ptr noundef %13)
  br label %33

14:                                               ; preds = %7
  %15 = load ptr, ptr %3, align 8, !tbaa !4
  %16 = getelementptr inbounds nuw %struct.dtoa_context, ptr %15, i32 0, i32 0
  %17 = load ptr, ptr %4, align 8, !tbaa !11
  %18 = getelementptr inbounds nuw %struct.Bigint, ptr %17, i32 0, i32 1
  %19 = load i32, ptr %18, align 8, !tbaa !22
  %20 = sext i32 %19 to i64
  %21 = getelementptr inbounds [8 x ptr], ptr %16, i64 0, i64 %20
  %22 = load ptr, ptr %21, align 8, !tbaa !11
  %23 = load ptr, ptr %4, align 8, !tbaa !11
  %24 = getelementptr inbounds nuw %struct.Bigint, ptr %23, i32 0, i32 0
  store ptr %22, ptr %24, align 8, !tbaa !17
  %25 = load ptr, ptr %4, align 8, !tbaa !11
  %26 = load ptr, ptr %3, align 8, !tbaa !4
  %27 = getelementptr inbounds nuw %struct.dtoa_context, ptr %26, i32 0, i32 0
  %28 = load ptr, ptr %4, align 8, !tbaa !11
  %29 = getelementptr inbounds nuw %struct.Bigint, ptr %28, i32 0, i32 1
  %30 = load i32, ptr %29, align 8, !tbaa !22
  %31 = sext i32 %30 to i64
  %32 = getelementptr inbounds [8 x ptr], ptr %27, i64 0, i64 %31
  store ptr %25, ptr %32, align 8, !tbaa !11
  br label %33

33:                                               ; preds = %14, %12
  br label %34

34:                                               ; preds = %33, %2
  ret void
}

; Function Attrs: nounwind uwtable
define internal ptr @Balloc(ptr noundef %0, i32 noundef %1) #0 {
  %3 = alloca ptr, align 8
  %4 = alloca i32, align 4
  %5 = alloca i32, align 4
  %6 = alloca ptr, align 8
  store ptr %0, ptr %3, align 8, !tbaa !4
  store i32 %1, ptr %4, align 4, !tbaa !9
  call void @llvm.lifetime.start.p0(i64 4, ptr %5) #6
  call void @llvm.lifetime.start.p0(i64 8, ptr %6) #6
  %7 = load i32, ptr %4, align 4, !tbaa !9
  %8 = icmp sle i32 %7, 7
  br i1 %8, label %9, label %26

9:                                                ; preds = %2
  %10 = load ptr, ptr %3, align 8, !tbaa !4
  %11 = getelementptr inbounds nuw %struct.dtoa_context, ptr %10, i32 0, i32 0
  %12 = load i32, ptr %4, align 4, !tbaa !9
  %13 = sext i32 %12 to i64
  %14 = getelementptr inbounds [8 x ptr], ptr %11, i64 0, i64 %13
  %15 = load ptr, ptr %14, align 8, !tbaa !11
  store ptr %15, ptr %6, align 8, !tbaa !11
  %16 = icmp ne ptr %15, null
  br i1 %16, label %17, label %26

17:                                               ; preds = %9
  %18 = load ptr, ptr %6, align 8, !tbaa !11
  %19 = getelementptr inbounds nuw %struct.Bigint, ptr %18, i32 0, i32 0
  %20 = load ptr, ptr %19, align 8, !tbaa !17
  %21 = load ptr, ptr %3, align 8, !tbaa !4
  %22 = getelementptr inbounds nuw %struct.dtoa_context, ptr %21, i32 0, i32 0
  %23 = load i32, ptr %4, align 4, !tbaa !9
  %24 = sext i32 %23 to i64
  %25 = getelementptr inbounds [8 x ptr], ptr %22, i64 0, i64 %24
  store ptr %20, ptr %25, align 8, !tbaa !11
  br label %41

26:                                               ; preds = %9, %2
  %27 = load i32, ptr %4, align 4, !tbaa !9
  %28 = shl i32 1, %27
  store i32 %28, ptr %5, align 4, !tbaa !9
  %29 = load i32, ptr %5, align 4, !tbaa !9
  %30 = sub nsw i32 %29, 1
  %31 = sext i32 %30 to i64
  %32 = mul i64 %31, 4
  %33 = add i64 32, %32
  %34 = call ptr @jv_mem_alloc(i64 noundef %33)
  store ptr %34, ptr %6, align 8, !tbaa !11
  %35 = load i32, ptr %4, align 4, !tbaa !9
  %36 = load ptr, ptr %6, align 8, !tbaa !11
  %37 = getelementptr inbounds nuw %struct.Bigint, ptr %36, i32 0, i32 1
  store i32 %35, ptr %37, align 8, !tbaa !22
  %38 = load i32, ptr %5, align 4, !tbaa !9
  %39 = load ptr, ptr %6, align 8, !tbaa !11
  %40 = getelementptr inbounds nuw %struct.Bigint, ptr %39, i32 0, i32 2
  store i32 %38, ptr %40, align 4, !tbaa !58
  br label %41

41:                                               ; preds = %26, %17
  %42 = load ptr, ptr %6, align 8, !tbaa !11
  %43 = getelementptr inbounds nuw %struct.Bigint, ptr %42, i32 0, i32 4
  store i32 0, ptr %43, align 4, !tbaa !51
  %44 = load ptr, ptr %6, align 8, !tbaa !11
  %45 = getelementptr inbounds nuw %struct.Bigint, ptr %44, i32 0, i32 3
  store i32 0, ptr %45, align 8, !tbaa !52
  %46 = load ptr, ptr %6, align 8, !tbaa !11
  call void @llvm.lifetime.end.p0(i64 8, ptr %6) #6
  call void @llvm.lifetime.end.p0(i64 4, ptr %5) #6
  ret ptr %46
}

; Function Attrs: nounwind uwtable
define internal ptr @multadd(ptr noundef %0, ptr noundef %1, i32 noundef %2, i32 noundef %3) #0 {
  %5 = alloca ptr, align 8
  %6 = alloca ptr, align 8
  %7 = alloca i32, align 4
  %8 = alloca i32, align 4
  %9 = alloca i32, align 4
  %10 = alloca i32, align 4
  %11 = alloca ptr, align 8
  %12 = alloca i64, align 8
  %13 = alloca i64, align 8
  %14 = alloca ptr, align 8
  store ptr %0, ptr %5, align 8, !tbaa !4
  store ptr %1, ptr %6, align 8, !tbaa !11
  store i32 %2, ptr %7, align 4, !tbaa !9
  store i32 %3, ptr %8, align 4, !tbaa !9
  call void @llvm.lifetime.start.p0(i64 4, ptr %9) #6
  call void @llvm.lifetime.start.p0(i64 4, ptr %10) #6
  call void @llvm.lifetime.start.p0(i64 8, ptr %11) #6
  call void @llvm.lifetime.start.p0(i64 8, ptr %12) #6
  call void @llvm.lifetime.start.p0(i64 8, ptr %13) #6
  call void @llvm.lifetime.start.p0(i64 8, ptr %14) #6
  %15 = load ptr, ptr %6, align 8, !tbaa !11
  %16 = getelementptr inbounds nuw %struct.Bigint, ptr %15, i32 0, i32 4
  %17 = load i32, ptr %16, align 4, !tbaa !51
  store i32 %17, ptr %10, align 4, !tbaa !9
  %18 = load ptr, ptr %6, align 8, !tbaa !11
  %19 = getelementptr inbounds nuw %struct.Bigint, ptr %18, i32 0, i32 5
  %20 = getelementptr inbounds [1 x i32], ptr %19, i64 0, i64 0
  store ptr %20, ptr %11, align 8, !tbaa !60
  store i32 0, ptr %9, align 4, !tbaa !9
  %21 = load i32, ptr %8, align 4, !tbaa !9
  %22 = sext i32 %21 to i64
  store i64 %22, ptr %12, align 8, !tbaa !63
  br label %23

23:                                               ; preds = %39, %4
  %24 = load ptr, ptr %11, align 8, !tbaa !60
  %25 = load i32, ptr %24, align 4, !tbaa !9
  %26 = zext i32 %25 to i64
  %27 = load i32, ptr %7, align 4, !tbaa !9
  %28 = sext i32 %27 to i64
  %29 = mul i64 %26, %28
  %30 = load i64, ptr %12, align 8, !tbaa !63
  %31 = add i64 %29, %30
  store i64 %31, ptr %13, align 8, !tbaa !63
  %32 = load i64, ptr %13, align 8, !tbaa !63
  %33 = lshr i64 %32, 32
  store i64 %33, ptr %12, align 8, !tbaa !63
  %34 = load i64, ptr %13, align 8, !tbaa !63
  %35 = and i64 %34, 4294967295
  %36 = trunc i64 %35 to i32
  %37 = load ptr, ptr %11, align 8, !tbaa !60
  %38 = getelementptr inbounds nuw i32, ptr %37, i32 1
  store ptr %38, ptr %11, align 8, !tbaa !60
  store i32 %36, ptr %37, align 4, !tbaa !9
  br label %39

39:                                               ; preds = %23
  %40 = load i32, ptr %9, align 4, !tbaa !9
  %41 = add nsw i32 %40, 1
  store i32 %41, ptr %9, align 4, !tbaa !9
  %42 = load i32, ptr %10, align 4, !tbaa !9
  %43 = icmp slt i32 %41, %42
  br i1 %43, label %23, label %44, !llvm.loop !88

44:                                               ; preds = %39
  %45 = load i64, ptr %12, align 8, !tbaa !63
  %46 = icmp ne i64 %45, 0
  br i1 %46, label %47, label %85

47:                                               ; preds = %44
  %48 = load i32, ptr %10, align 4, !tbaa !9
  %49 = load ptr, ptr %6, align 8, !tbaa !11
  %50 = getelementptr inbounds nuw %struct.Bigint, ptr %49, i32 0, i32 2
  %51 = load i32, ptr %50, align 4, !tbaa !58
  %52 = icmp sge i32 %48, %51
  br i1 %52, label %53, label %73

53:                                               ; preds = %47
  %54 = load ptr, ptr %5, align 8, !tbaa !4
  %55 = load ptr, ptr %6, align 8, !tbaa !11
  %56 = getelementptr inbounds nuw %struct.Bigint, ptr %55, i32 0, i32 1
  %57 = load i32, ptr %56, align 8, !tbaa !22
  %58 = add nsw i32 %57, 1
  %59 = call ptr @Balloc(ptr noundef %54, i32 noundef %58)
  store ptr %59, ptr %14, align 8, !tbaa !11
  %60 = load ptr, ptr %14, align 8, !tbaa !11
  %61 = getelementptr inbounds nuw %struct.Bigint, ptr %60, i32 0, i32 3
  %62 = load ptr, ptr %6, align 8, !tbaa !11
  %63 = getelementptr inbounds nuw %struct.Bigint, ptr %62, i32 0, i32 3
  %64 = load ptr, ptr %6, align 8, !tbaa !11
  %65 = getelementptr inbounds nuw %struct.Bigint, ptr %64, i32 0, i32 4
  %66 = load i32, ptr %65, align 4, !tbaa !51
  %67 = sext i32 %66 to i64
  %68 = mul i64 %67, 4
  %69 = add i64 %68, 8
  call void @llvm.memcpy.p0.p0.i64(ptr align 8 %61, ptr align 8 %63, i64 %69, i1 false)
  %70 = load ptr, ptr %5, align 8, !tbaa !4
  %71 = load ptr, ptr %6, align 8, !tbaa !11
  call void @Bfree(ptr noundef %70, ptr noundef %71)
  %72 = load ptr, ptr %14, align 8, !tbaa !11
  store ptr %72, ptr %6, align 8, !tbaa !11
  br label %73

73:                                               ; preds = %53, %47
  %74 = load i64, ptr %12, align 8, !tbaa !63
  %75 = trunc i64 %74 to i32
  %76 = load ptr, ptr %6, align 8, !tbaa !11
  %77 = getelementptr inbounds nuw %struct.Bigint, ptr %76, i32 0, i32 5
  %78 = load i32, ptr %10, align 4, !tbaa !9
  %79 = add nsw i32 %78, 1
  store i32 %79, ptr %10, align 4, !tbaa !9
  %80 = sext i32 %78 to i64
  %81 = getelementptr inbounds [1 x i32], ptr %77, i64 0, i64 %80
  store i32 %75, ptr %81, align 4, !tbaa !9
  %82 = load i32, ptr %10, align 4, !tbaa !9
  %83 = load ptr, ptr %6, align 8, !tbaa !11
  %84 = getelementptr inbounds nuw %struct.Bigint, ptr %83, i32 0, i32 4
  store i32 %82, ptr %84, align 4, !tbaa !51
  br label %85

85:                                               ; preds = %73, %44
  %86 = load ptr, ptr %6, align 8, !tbaa !11
  call void @llvm.lifetime.end.p0(i64 8, ptr %14) #6
  call void @llvm.lifetime.end.p0(i64 8, ptr %13) #6
  call void @llvm.lifetime.end.p0(i64 8, ptr %12) #6
  call void @llvm.lifetime.end.p0(i64 8, ptr %11) #6
  call void @llvm.lifetime.end.p0(i64 4, ptr %10) #6
  call void @llvm.lifetime.end.p0(i64 4, ptr %9) #6
  ret ptr %86
}