; Function Attrs: nounwind uwtable
define internal fastcc ptr @multadd(ptr noundef captures(none) %0, ptr noundef %1, i32 noundef %2, i32 noundef range(i32 -176, 80) %3) unnamed_addr #2 {
  %5 = getelementptr inbounds nuw i8, ptr %1, i64 20
  %6 = load i32, ptr %5, align 4, !tbaa !38
  %7 = getelementptr inbounds nuw i8, ptr %1, i64 24
  %8 = sext i32 %3 to i64
  %9 = sext i32 %2 to i64
  %smax = tail call i32 @llvm.smax.i32(i32 %6, i32 1)
  br label %10

10:                                               ; preds = %10, %4
  %.029 = phi ptr [ %7, %4 ], [ %17, %10 ]
  %.028 = phi i64 [ %8, %4 ], [ %15, %10 ]
  %.027 = phi i32 [ 0, %4 ], [ %18, %10 ]
  %11 = load i32, ptr %.029, align 4, !tbaa !37
  %12 = zext i32 %11 to i64
  %13 = mul nsw i64 %12, %9
  %14 = add nsw i64 %13, %.028
  %15 = lshr i64 %14, 32
  %16 = trunc i64 %14 to i32
  %17 = getelementptr inbounds nuw i8, ptr %.029, i64 4
  store i32 %16, ptr %.029, align 4, !tbaa !37
  %18 = add nuw nsw i32 %.027, 1
  %exitcond.not = icmp eq i32 %18, %smax
  br i1 %exitcond.not, label %19, label %10, !llvm.loop !63

19:                                               ; preds = %10
  %.not = icmp ult i64 %14, 4294967296
  br i1 %.not, label %64, label %20

20:                                               ; preds = %19
  %21 = getelementptr inbounds nuw i8, ptr %1, i64 12
  %22 = load i32, ptr %21, align 4, !tbaa !35
  %.not32 = icmp slt i32 %6, %22
  br i1 %.not32, label %Bfree.exit, label %23

23:                                               ; preds = %20
  %24 = getelementptr inbounds nuw i8, ptr %1, i64 8
  %25 = load i32, ptr %24, align 8, !tbaa !13
  %26 = add nsw i32 %25, 1
  %27 = icmp slt i32 %25, 7
  br i1 %27, label %28, label %34

28:                                               ; preds = %23
  %29 = sext i32 %26 to i64
  %30 = getelementptr inbounds [8 x ptr], ptr %0, i64 0, i64 %29
  %31 = load ptr, ptr %30, align 8, !tbaa !14
  %.not.i = icmp eq ptr %31, null
  br i1 %.not.i, label %34, label %32

32:                                               ; preds = %28
  %33 = load ptr, ptr %31, align 8, !tbaa !10
  store ptr %33, ptr %30, align 8, !tbaa !14
  br label %43

34:                                               ; preds = %28, %23
  %35 = shl nuw i32 1, %26
  %36 = add nsw i32 %35, -1
  %37 = zext nneg i32 %36 to i64
  %38 = shl nuw nsw i64 %37, 2
  %39 = add nuw nsw i64 %38, 32
  %40 = tail call ptr @jv_mem_alloc(i64 noundef %39) #11
  %41 = getelementptr inbounds nuw i8, ptr %40, i64 8
  store i32 %26, ptr %41, align 8, !tbaa !13
  %42 = getelementptr inbounds nuw i8, ptr %40, i64 12
  store i32 %35, ptr %42, align 4, !tbaa !35
  br label %43

43:                                               ; preds = %34, %32
  %.0.i = phi ptr [ %31, %32 ], [ %40, %34 ]
  %44 = getelementptr inbounds nuw i8, ptr %.0.i, i64 20
  store i32 0, ptr %44, align 4, !tbaa !38
  %45 = getelementptr inbounds nuw i8, ptr %.0.i, i64 16
  store i32 0, ptr %45, align 8, !tbaa !36
  %46 = getelementptr inbounds nuw i8, ptr %1, i64 16
  %47 = load i32, ptr %5, align 4, !tbaa !38
  %48 = sext i32 %47 to i64
  %49 = shl nsw i64 %48, 2
  %50 = add nsw i64 %49, 8
  tail call void @llvm.memcpy.p0.p0.i64(ptr nonnull align 8 %45, ptr nonnull align 8 %46, i64 %50, i1 false)
  %51 = load i32, ptr %24, align 8, !tbaa !13
  %52 = icmp sgt i32 %51, 7
  br i1 %52, label %53, label %54

53:                                               ; preds = %43
  tail call void @jv_mem_free(ptr noundef nonnull %1) #11
  br label %Bfree.exit

54:                                               ; preds = %43
  %55 = sext i32 %51 to i64
  %56 = getelementptr inbounds [8 x ptr], ptr %0, i64 0, i64 %55
  %57 = load ptr, ptr %56, align 8, !tbaa !14
  store ptr %57, ptr %1, align 8, !tbaa !10
  store ptr %1, ptr %56, align 8, !tbaa !14
  br label %Bfree.exit

Bfree.exit:                                       ; preds = %54, %53, %20
  %.1 = phi ptr [ %1, %20 ], [ %.0.i, %53 ], [ %.0.i, %54 ]
  %58 = trunc nuw i64 %15 to i32
  %59 = getelementptr inbounds nuw i8, ptr %.1, i64 24
  %60 = add nsw i32 %6, 1
  %61 = sext i32 %6 to i64
  %62 = getelementptr inbounds [1 x i32], ptr %59, i64 0, i64 %61
  store i32 %58, ptr %62, align 4, !tbaa !37
  %63 = getelementptr inbounds nuw i8, ptr %.1, i64 20
  store i32 %60, ptr %63, align 4, !tbaa !38
  br label %64

64:                                               ; preds = %Bfree.exit, %19
  %.0 = phi ptr [ %.1, %Bfree.exit ], [ %1, %19 ]
  ret ptr %.0
}